; ModuleID = '33/3130.c'
source_filename = "33/3130.c"
target datalayout = "e-m:e-p270:32:32-p271:32:32-p272:64:64-i64:64-f80:128-n8:16:32:64-S128"
target triple = "x86_64-pc-linux-gnu"

; Function Attrs: noinline nounwind uwtable
define dso_local i32 @main() #0 {
  %1 = alloca i32, align 4
  %2 = alloca [256 x i8], align 16
  %3 = alloca i32, align 4
  %4 = alloca i32, align 4
  %5 = alloca i32, align 4
  store i32 0, i32* %1, align 4
  %6 = getelementptr inbounds [256 x i8], [256 x i8]* %2, i64 0, i64 0
  %7 = call i32 (i8*, ...) bitcast (i32 (...)* @gets to i32 (i8*, ...)*)(i8* %6)
  %8 = getelementptr inbounds [256 x i8], [256 x i8]* %2, i64 0, i64 0
  %9 = call i32 @atoi(i8* %8) #3
  store i32 %9, i32* %3, align 4
  store i32 0, i32* %4, align 4
  br label %10

10:                                               ; preds = %78, %0
  %11 = load i32, i32* %4, align 4
  %12 = load i32, i32* %3, align 4
  %13 = icmp slt i32 %11, %12
  br i1 %13, label %14, label %81

14:                                               ; preds = %10
  %15 = getelementptr inbounds [256 x i8], [256 x i8]* %2, i64 0, i64 0
  %16 = call i32 (i8*, ...) bitcast (i32 (...)* @gets to i32 (i8*, ...)*)(i8* %15)
  store i32 0, i32* %5, align 4
  br label %17

17:                                               ; preds = %72, %14
  %18 = load i32, i32* %5, align 4
  %19 = sext i32 %18 to i64
  %20 = getelementptr inbounds [256 x i8], [256 x i8]* %2, i64 0, i64 %19
  %21 = load i8, i8* %20, align 1
  %22 = sext i8 %21 to i32
  %23 = icmp ne i32 %22, 0
  br i1 %23, label %24, label %75

24:                                               ; preds = %17
  %25 = load i32, i32* %5, align 4
  %26 = sext i32 %25 to i64
  %27 = getelementptr inbounds [256 x i8], [256 x i8]* %2, i64 0, i64 %26
  %28 = load i8, i8* %27, align 1
  %29 = sext i8 %28 to i32
  %30 = icmp eq i32 %29, 65
  br i1 %30, label %31, label %35

31:                                               ; preds = %24
  %32 = load i32, i32* %5, align 4
  %33 = sext i32 %32 to i64
  %34 = getelementptr inbounds [256 x i8], [256 x i8]* %2, i64 0, i64 %33
  store i8 84, i8* %34, align 1
  br label %71

35:                                               ; preds = %24
  %36 = load i32, i32* %5, align 4
  %37 = sext i32 %36 to i64
  %38 = getelementptr inbounds [256 x i8], [256 x i8]* %2, i64 0, i64 %37
  %39 = load i8, i8* %38, align 1
  %40 = sext i8 %39 to i32
  %41 = icmp eq i32 %40, 67
  br i1 %41, label %42, label %46

42:                                               ; preds = %35
  %43 = load i32, i32* %5, align 4
  %44 = sext i32 %43 to i64
  %45 = getelementptr inbounds [256 x i8], [256 x i8]* %2, i64 0, i64 %44
  store i8 71, i8* %45, align 1
  br label %70

46:                                               ; preds = %35
  %47 = load i32, i32* %5, align 4
  %48 = sext i32 %47 to i64
  %49 = getelementptr inbounds [256 x i8], [256 x i8]* %2, i64 0, i64 %48
  %50 = load i8, i8* %49, align 1
  %51 = sext i8 %50 to i32
  %52 = icmp eq i32 %51, 71
  br i1 %52, label %53, label %57

53:                                               ; preds = %46
  %54 = load i32, i32* %5, align 4
  %55 = sext i32 %54 to i64
  %56 = getelementptr inbounds [256 x i8], [256 x i8]* %2, i64 0, i64 %55
  store i8 67, i8* %56, align 1
  br label %69

57:                                               ; preds = %46
  %58 = load i32, i32* %5, align 4
  %59 = sext i32 %58 to i64
  %60 = getelementptr inbounds [256 x i8], [256 x i8]* %2, i64 0, i64 %59
  %61 = load i8, i8* %60, align 1
  %62 = sext i8 %61 to i32
  %63 = icmp eq i32 %62, 84
  br i1 %63, label %64, label %68

64:                                               ; preds = %57
  %65 = load i32, i32* %5, align 4
  %66 = sext i32 %65 to i64
  %67 = getelementptr inbounds [256 x i8], [256 x i8]* %2, i64 0, i64 %66
  store i8 65, i8* %67, align 1
  br label %68

68:                                               ; preds = %64, %57
  br label %69

69:                                               ; preds = %68, %53
  br label %70

70:                                               ; preds = %69, %42
  br label %71

71:                                               ; preds = %70, %31
  br label %72

72:                                               ; preds = %71
  %73 = load i32, i32* %5, align 4
  %74 = add nsw i32 %73, 1
  store i32 %74, i32* %5, align 4
  br label %17

75:                                               ; preds = %17
  %76 = getelementptr inbounds [256 x i8], [256 x i8]* %2, i64 0, i64 0
  %77 = call i32 @puts(i8* %76)
  br label %78

78:                                               ; preds = %75
  %79 = load i32, i32* %4, align 4
  %80 = add nsw i32 %79, 1
  store i32 %80, i32* %4, align 4
  br label %10

81:                                               ; preds = %10
  ret i32 0
}

declare dso_local i32 @gets(...) #1

; Function Attrs: nounwind readonly
declare dso_local i32 @atoi(i8*) #2

declare dso_local i32 @puts(i8*) #1


!llvm.module.flags = !{!0}
!llvm.ident = !{!1}

!0 = !{i32 1, !"wchar_size", i32 4}
!1 = !{!"clang version 10.0.0-4ubuntu1 "}
