; ModuleID = 'source-C-CXX/32/3130.c'
source_filename = "source-C-CXX/32/3130.c"
target datalayout = "e-m:e-p270:32:32-p271:32:32-p272:64:64-i64:64-f80:128-n8:16:32:64-S128"
target triple = "x86_64-pc-linux-gnu"

; Function Attrs: nounwind sspstrong uwtable
define dso_local i32 @main() local_unnamed_addr #0 {
  %1 = alloca [256 x i8], align 16
  %2 = getelementptr inbounds [256 x i8], [256 x i8]* %1, i64 0, i64 0
  call void @llvm.lifetime.start.p0i8(i64 256, i8* nonnull %2) #5
  %3 = call i32 (i8*, ...) bitcast (i32 (...)* @gets to i32 (i8*, ...)*)(i8* nonnull %2) #5
  %4 = call i64 @strtol(i8* nocapture nonnull %2, i8** null, i32 10) #5
  %5 = trunc i64 %4 to i32
  %6 = icmp sgt i32 %5, 0
  br i1 %6, label %7, label %25

7:                                                ; preds = %0, %21
  %8 = phi i32 [ %23, %21 ], [ 0, %0 ]
  %9 = call i32 (i8*, ...) bitcast (i32 (...)* @gets to i32 (i8*, ...)*)(i8* nonnull %2) #5
  br label %10

10:                                               ; preds = %19, %7
  %11 = phi i64 [ %20, %19 ], [ 0, %7 ]
  %12 = getelementptr inbounds [256 x i8], [256 x i8]* %1, i64 0, i64 %11
  %13 = load i8, i8* %12, align 1, !tbaa !5
  switch i8 %13, label %19 [
    i8 0, label %21
    i8 65, label %17
    i8 67, label %14
    i8 71, label %15
    i8 84, label %16
  ]

14:                                               ; preds = %10
  br label %17

15:                                               ; preds = %10
  br label %17

16:                                               ; preds = %10
  br label %17

17:                                               ; preds = %10, %14, %16, %15
  %18 = phi i8 [ 67, %15 ], [ 65, %16 ], [ 71, %14 ], [ 84, %10 ]
  store i8 %18, i8* %12, align 1, !tbaa !5
  br label %19

19:                                               ; preds = %17, %10
  %20 = add nuw i64 %11, 1
  br label %10, !llvm.loop !8

21:                                               ; preds = %10
  %22 = call i32 @puts(i8* nonnull %2)
  %23 = add nuw nsw i32 %8, 1
  %24 = icmp eq i32 %23, %5
  br i1 %24, label %25, label %7, !llvm.loop !10

25:                                               ; preds = %21, %0
  call void @llvm.lifetime.end.p0i8(i64 256, i8* nonnull %2) #5
  ret i32 0
}

; Function Attrs: argmemonly mustprogress nofree nosync nounwind willreturn
declare void @llvm.lifetime.start.p0i8(i64 immarg, i8* nocapture) #1

declare i32 @gets(...) local_unnamed_addr #2

; Function Attrs: nofree nounwind
declare noundef i32 @puts(i8* nocapture noundef readonly) local_unnamed_addr #3

; Function Attrs: argmemonly mustprogress nofree nosync nounwind willreturn
declare void @llvm.lifetime.end.p0i8(i64 immarg, i8* nocapture) #1

; Function Attrs: mustprogress nofree nounwind willreturn
declare i64 @strtol(i8* readonly, i8** nocapture, i32) local_unnamed_addr #4


!llvm.module.flags = !{!0, !1, !2, !3}
!llvm.ident = !{!4}

!0 = !{i32 1, !"wchar_size", i32 4}
!1 = !{i32 7, !"PIC Level", i32 2}
!2 = !{i32 7, !"PIE Level", i32 2}
!3 = !{i32 7, !"uwtable", i32 1}
!4 = !{!"clang version 13.0.0"}
!5 = !{!6, !6, i64 0}
!6 = !{!"omnipotent char", !7, i64 0}
!7 = !{!"Simple C/C++ TBAA"}
!8 = distinct !{!8, !9}
!9 = !{!"llvm.loop.mustprogress"}
!10 = distinct !{!10, !9}
